(lp0
(lp1
I2
aI3
aI7
aI13
aI5
aI16
aI1
aI2
aa(lp2
I8
aI19
aI6
aI2
aI3
aI3
aI6
aI10
aa(lp3
I6
aI4
aI7
aI15
aI5
aI14
aI2
aI1
aa(lp4
I8
aI17
aI7
aI1
aI2
aI3
aI7
aI16
aa(lp5
I7
aI19
aI6
aI2
aI3
aI3
aI6
aI10
aa(lp6
I1
aI5
aI7
aI14
aI5
aI14
aI1
aI4
aa(lp7
I7
aI18
aI7
aI2
aI1
aI1
aI6
aI12
aa(lp8
I8
aI18
aI7
aI3
aI1
aI1
aI5
aI11
aa(lp9
I8
aI18
aI8
aI3
aI1
aI1
aI7
aI12
aa(lp10
I6
aI1
aI7
aI14
aI5
aI14
aI1
aI1
aa(lp11
I8
aI16
aI8
aI2
aI2
aI3
aI7
aI17
aa(lp12
I8
aI20
aI7
aI2
aI1
aI2
aI6
aI12
aa(lp13
I5
aI4
aI6
aI14
aI5
aI13
aI2
aI1
aa(lp14
I8
aI16
aI8
aI2
aI2
aI3
aI7
aI17
aa(lp15
I6
aI4
aI7
aI14
aI5
aI14
aI2
aI1
aa(lp16
I8
aI19
aI7
aI1
aI1
aI2
aI6
aI12
aa(lp17
I7
aI19
aI6
aI1
aI3
aI3
aI6
aI10
aa(lp18
I8
aI19
aI7
aI2
aI1
aI1
aI6
aI12
aa(lp19
I9
aI16
aI9
aI3
aI3
aI1
aI6
aI10
aa(lp20
I7
aI4
aI5
aI13
aI5
aI14
aI2
aI1
aa(lp21
I8
aI20
aI7
aI2
aI1
aI2
aI6
aI12
aa(lp22
I2
aI3
aI8
aI14
aI5
aI15
aI2
aI3
aa(lp23
I8
aI20
aI6
aI2
aI1
aI2
aI6
aI13
aa(lp24
I8
aI20
aI7
aI2
aI1
aI2
aI6
aI13
aa(lp25
I7
aI19
aI7
aI1
aI3
aI3
aI6
aI10
aa(lp26
I9
aI17
aI9
aI2
aI3
aI1
aI6
aI10
aa(lp27
I2
aI3
aI8
aI15
aI5
aI15
aI2
aI2
aa(lp28
I8
aI16
aI9
aI4
aI2
aI1
aI6
aI8
aa(lp29
I8
aI16
aI8
aI2
aI2
aI3
aI7
aI18
aa(lp30
I2
aI3
aI8
aI14
aI5
aI15
aI2
aI2
aa(lp31
I7
aI5
aI6
aI13
aI6
aI14
aI2
aI1
aa(lp32
I8
aI18
aI8
aI2
aI1
aI1
aI6
aI12
aa(lp33
I3
aI3
aI7
aI14
aI5
aI16
aI1
aI2
aa(lp34
I8
aI20
aI7
aI2
aI2
aI2
aI6
aI13
aa(lp35
I6
aI2
aI8
aI15
aI5
aI14
aI1
aI2
aa(lp36
I2
aI3
aI8
aI14
aI5
aI14
aI2
aI2
aa(lp37
I2
aI3
aI8
aI14
aI5
aI16
aI3
aI3
aa(lp38
I6
aI2
aI7
aI14
aI5
aI15
aI1
aI2
aa(lp39
I8
aI16
aI8
aI3
aI2
aI3
aI6
aI17
aa(lp40
I7
aI5
aI5
aI13
aI5
aI13
aI1
aI1
aa(lp41
I6
aI3
aI8
aI14
aI5
aI14
aI2
aI3
aa(lp42
I6
aI4
aI7
aI16
aI5
aI14
aI2
aI1
aa(lp43
I3
aI3
aI7
aI13
aI5
aI16
aI1
aI2
aa(lp44
I8
aI19
aI7
aI1
aI1
aI2
aI7
aI12
aa(lp45
I8
aI16
aI9
aI3
aI2
aI1
aI6
aI9
aa(lp46
I6
aI1
aI7
aI14
aI5
aI14
aI1
aI1
aa(lp47
I9
aI20
aI7
aI2
aI1
aI2
aI6
aI12
aa(lp48
I3
aI3
aI7
aI14
aI5
aI15
aI1
aI2
aa(lp49
I8
aI20
aI7
aI2
aI1
aI2
aI6
aI13
aa(lp50
I6
aI4
aI7
aI14
aI5
aI15
aI2
aI1
aa(lp51
I6
aI2
aI7
aI14
aI5
aI15
aI1
aI2
aa(lp52
I3
aI3
aI7
aI13
aI5
aI16
aI1
aI2
aa(lp53
I9
aI20
aI7
aI2
aI1
aI2
aI6
aI13
aa(lp54
I6
aI5
aI7
aI14
aI3
aI14
aI2
aI1
aa(lp55
I6
aI4
aI7
aI14
aI5
aI14
aI2
aI2
aa(lp56
I3
aI3
aI8
aI14
aI5
aI15
aI2
aI2
aa(lp57
I6
aI4
aI7
aI17
aI5
aI14
aI2
aI1
aa(lp58
I8
aI17
aI7
aI2
aI2
aI3
aI6
aI16
aa(lp59
I6
aI4
aI6
aI15
aI5
aI14
aI2
aI1
aa(lp60
I8
aI19
aI7
aI3
aI1
aI2
aI6
aI12
aa(lp61
I9
aI20
aI7
aI2
aI1
aI2
aI6
aI13
aa(lp62
I2
aI3
aI8
aI13
aI5
aI16
aI3
aI3
aa(lp63
I8
aI17
aI7
aI1
aI1
aI3
aI7
aI16
aa(lp64
I9
aI16
aI9
aI3
aI3
aI1
aI6
aI10
aa(lp65
I6
aI5
aI8
aI15
aI6
aI14
aI2
aI2
aa(lp66
I6
aI4
aI7
aI14
aI3
aI14
aI2
aI1
aa(lp67
I8
aI21
aI7
aI2
aI1
aI2
aI6
aI12
aa(lp68
I8
aI20
aI7
aI2
aI1
aI2
aI6
aI13
aa(lp69
I6
aI5
aI7
aI14
aI3
aI14
aI2
aI1
aa(lp70
I6
aI4
aI8
aI17
aI5
aI14
aI2
aI1
aa(lp71
I6
aI4
aI6
aI14
aI5
aI14
aI2
aI1
aa(lp72
I1
aI5
aI7
aI15
aI5
aI14
aI1
aI4
aa(lp73
I1
aI5
aI7
aI15
aI5
aI14
aI1
aI4
aa(lp74
I8
aI16
aI9
aI3
aI2
aI1
aI6
aI9
aa(lp75
I6
aI4
aI7
aI16
aI5
aI14
aI2
aI1
aa(lp76
I6
aI4
aI7
aI16
aI5
aI14
aI2
aI2
aa(lp77
I6
aI4
aI7
aI14
aI6
aI15
aI2
aI1
aa(lp78
I6
aI4
aI6
aI15
aI5
aI14
aI2
aI1
aa(lp79
I6
aI4
aI7
aI14
aI5
aI13
aI2
aI1
aa(lp80
I2
aI3
aI7
aI13
aI5
aI16
aI1
aI2
aa(lp81
I1
aI5
aI7
aI13
aI5
aI14
aI1
aI4
aa(lp82
I8
aI16
aI9
aI2
aI2
aI3
aI7
aI18
aa(lp83
I6
aI4
aI5
aI15
aI5
aI14
aI2
aI1
aa(lp84
I9
aI17
aI8
aI2
aI1
aI1
aI6
aI12
aa(lp85
I6
aI5
aI7
aI14
aI3
aI13
aI2
aI1
aa(lp86
I1
aI5
aI7
aI13
aI5
aI15
aI1
aI4
aa(lp87
I9
aI20
aI8
aI2
aI1
aI2
aI6
aI12
aa(lp88
I2
aI3
aI7
aI13
aI6
aI16
aI1
aI2
aa(lp89
I6
aI4
aI7
aI17
aI5
aI14
aI2
aI1
aa(lp90
I2
aI3
aI8
aI14
aI5
aI17
aI3
aI3
aa(lp91
I2
aI3
aI8
aI13
aI5
aI16
aI1
aI2
aa(lp92
I7
aI5
aI5
aI14
aI5
aI13
aI1
aI1
aa(lp93
I8
aI15
aI8
aI2
aI2
aI3
aI7
aI18
aa(lp94
I3
aI4
aI8
aI14
aI5
aI15
aI2
aI2
aa(lp95
I6
aI4
aI8
aI17
aI4
aI14
aI2
aI1
aa(lp96
I8
aI19
aI7
aI3
aI1
aI1
aI6
aI12
aa(lp97
I6
aI4
aI6
aI15
aI5
aI14
aI2
aI1
aa(lp98
I3
aI2
aI7
aI13
aI5
aI16
aI1
aI2
aa(lp99
I6
aI4
aI5
aI15
aI5
aI14
aI2
aI1
aa(lp100
I6
aI4
aI7
aI14
aI5
aI12
aI2
aI1
aa(lp101
I3
aI4
aI8
aI13
aI5
aI15
aI2
aI2
aa(lp102
I3
aI4
aI8
aI13
aI5
aI15
aI2
aI1
aa(lp103
I2
aI3
aI7
aI13
aI5
aI16
aI1
aI2
aa(lp104
I7
aI19
aI6
aI2
aI2
aI3
aI6
aI10
aa(lp105
I5
aI4
aI7
aI17
aI5
aI14
aI2
aI1
aa(lp106
I8
aI18
aI8
aI3
aI1
aI1
aI7
aI12
aa(lp107
I3
aI3
aI7
aI13
aI5
aI16
aI1
aI2
aa(lp108
I6
aI4
aI7
aI14
aI3
aI15
aI2
aI1
aa(lp109
I6
aI4
aI5
aI15
aI5
aI14
aI2
aI1
aa(lp110
I6
aI5
aI8
aI15
aI6
aI14
aI2
aI2
aa(lp111
I3
aI2
aI7
aI13
aI5
aI16
aI1
aI2
aa(lp112
I8
aI19
aI7
aI1
aI1
aI2
aI6
aI12
aa(lp113
I7
aI20
aI6
aI1
aI3
aI3
aI6
aI10
aa(lp114
I6
aI4
aI7
aI15
aI3
aI14
aI2
aI1
aa(lp115
I3
aI2
aI7
aI13
aI6
aI16
aI1
aI2
aa(lp116
I7
aI18
aI7
aI2
aI1
aI1
aI6
aI11
aa(lp117
I9
aI19
aI6
aI2
aI3
aI3
aI6
aI10
aa(lp118
I6
aI4
aI6
aI14
aI5
aI14
aI3
aI1
aa(lp119
I8
aI15
aI9
aI3
aI2
aI1
aI6
aI9
aa(lp120
I6
aI4
aI5
aI14
aI5
aI14
aI2
aI1
aa(lp121
I9
aI20
aI7
aI2
aI2
aI2
aI6
aI13
aa(lp122
I1
aI5
aI7
aI15
aI5
aI14
aI1
aI4
aa(lp123
I7
aI19
aI7
aI2
aI1
aI1
aI6
aI12
aa(lp124
I6
aI4
aI8
aI17
aI5
aI14
aI2
aI1
aa(lp125
I8
aI15
aI9
aI3
aI2
aI1
aI6
aI9
aa(lp126
I6
aI5
aI7
aI14
aI3
aI13
aI2
aI1
aa(lp127
I3
aI4
aI8
aI13
aI4
aI15
aI2
aI1
aa(lp128
I7
aI20
aI6
aI1
aI3
aI3
aI6
aI10
aa(lp129
I2
aI3
aI8
aI13
aI5
aI16
aI3
aI3
aa(lp130
I2
aI3
aI8
aI13
aI5
aI16
aI1
aI2
aa(lp131
I6
aI4
aI6
aI14
aI5
aI14
aI2
aI1
aa(lp132
I2
aI3
aI6
aI13
aI5
aI16
aI1
aI2
aa(lp133
I6
aI4
aI6
aI15
aI5
aI14
aI2
aI1
aa(lp134
I6
aI4
aI7
aI17
aI4
aI14
aI2
aI1
aa(lp135
I1
aI5
aI7
aI15
aI5
aI14
aI1
aI5
aa(lp136
I2
aI3
aI7
aI13
aI6
aI16
aI1
aI2
aa(lp137
I8
aI20
aI8
aI2
aI1
aI2
aI6
aI12
aa(lp138
I6
aI19
aI6
aI2
aI3
aI3
aI6
aI10
aa(lp139
I6
aI5
aI7
aI14
aI3
aI13
aI2
aI1
aa(lp140
I8
aI18
aI7
aI3
aI2
aI1
aI5
aI11
aa(lp141
I7
aI18
aI7
aI2
aI1
aI1
aI6
aI11
aa(lp142
I7
aI19
aI6
aI2
aI2
aI3
aI6
aI10
aa(lp143
I9
aI20
aI6
aI2
aI3
aI3
aI6
aI10
aa(lp144
I6
aI4
aI6
aI14
aI5
aI15
aI3
aI1
aa(lp145
I2
aI4
aI7
aI13
aI6
aI16
aI1
aI2
aa(lp146
I2
aI3
aI8
aI15
aI5
aI16
aI3
aI3
aa(lp147
I9
aI20
aI7
aI2
aI1
aI1
aI6
aI13
aa(lp148
I7
aI18
aI7
aI2
aI1
aI2
aI6
aI12
aa(lp149
I6
aI4
aI7
aI14
aI6
aI15
aI2
aI1
aa(lp150
I8
aI15
aI8
aI2
aI2
aI3
aI7
aI18
aa(lp151
I6
aI4
aI8
aI17
aI4
aI14
aI2
aI1
aa(lp152
I8
aI20
aI7
aI2
aI1
aI2
aI6
aI13
aa(lp153
I6
aI4
aI7
aI14
aI7
aI15
aI2
aI1
aa(lp154
I3
aI4
aI8
aI13
aI5
aI15
aI2
aI2
aa(lp155
I2
aI3
aI7
aI13
aI5
aI16
aI1
aI2
aa(lp156
I6
aI4
aI8
aI17
aI4
aI14
aI1
aI1
aa(lp157
I2
aI3
aI8
aI14
aI5
aI14
aI2
aI3
aa(lp158
I8
aI18
aI9
aI2
aI1
aI1
aI6
aI12
aa(lp159
I2
aI3
aI8
aI14
aI5
aI15
aI2
aI4
aa(lp160
I9
aI19
aI6
aI2
aI3
aI3
aI7
aI10
aa(lp161
I1
aI5
aI7
aI15
aI5
aI14
aI1
aI4
aa(lp162
I7
aI20
aI6
aI1
aI3
aI3
aI6
aI10
aa.